target datalayout = "e-m:e-p270:32:32-p271:32:32-p272:64:64-i64:64-i128:128-f80:128-n8:16:32:64-S128"
target triple = "x86_64-pc-linux-gnu"

%"class.sls::bv_eval" = type <{ ptr, ptr, ptr, %"class.sls::bv_lookahead", %class.bv_util, %"class.sls::bv_fixed", [8 x i8], %class.ptr_vector, %class.random_gen, %"struct.sls::bv_eval::config", %class.svector.7, i32, i32, %class.svector.9, %class.svector.11, %class.scoped_ptr_vector, %"class.sls::bvect", %"class.sls::bvect", %"class.sls::bvect", %"class.sls::bvect", %"class.sls::bvect", %"class.sls::bvect", %"class.sls::bvect", %"class.sls::bvect", %"class.sls::bvect", %"class.sls::bvect", %"class.sls::bvect", %"class.sls::bvect", %"class.sls::bvect", i8, [7 x i8] }>
%"class.sls::bv_lookahead" = type { %class.bv_util, ptr, ptr, ptr, %"struct.sls::bv_lookahead::config", %"struct.sls::bv_lookahead::stats", %"class.sls::bvect", %"class.sls::bvect", %class.ptr_vector, %class.svector.1, %class.vector.3, %class.obj_mark, double, double, %"class.sls::bvect", ptr, ptr, %class.ptr_vector, %class.vector.4, %class.obj_mark, i32, %class.tracked_uint_set, i32, i32 }
%"struct.sls::bv_lookahead::config" = type <{ i8, [7 x i8], double, i32, i32, i8, i8, i8, i8, i32, i32, i32, i32, i8, [3 x i8], i32, i32, i32, i8, [3 x i8], double, double, i8, [7 x i8], double, i8, i8, i8, [5 x i8] }>
%"struct.sls::bv_lookahead::stats" = type { i32, i32, i32, i32, i32, i32 }
%class.svector.1 = type { %class.vector.2 }
%class.vector.2 = type { ptr }
%class.vector.3 = type { ptr }
%class.vector.4 = type { ptr }
%class.obj_mark = type { [8 x i8], %class.bit_vector }
%class.bit_vector = type { i32, i32, ptr }
%class.tracked_uint_set = type { %class.svector.5, %class.svector }
%class.svector.5 = type { %class.vector.6 }
%class.vector.6 = type { ptr }
%class.svector = type { %class.vector }
%class.vector = type { ptr }
%class.bv_util = type { %class.bv_recognizers, ptr, ptr }
%class.bv_recognizers = type { i32 }
%"class.sls::bv_fixed" = type { ptr, ptr, ptr, ptr, ptr }
%class.ptr_vector = type { %class.vector.0 }
%class.vector.0 = type { ptr }
%class.random_gen = type { i32 }
%"struct.sls::bv_eval::config" = type { i32 }
%class.svector.7 = type { %class.vector.8 }
%class.vector.8 = type { ptr }
%class.svector.9 = type { %class.vector.10 }
%class.vector.10 = type { ptr }
%class.svector.11 = type { %class.vector.12 }
%class.vector.12 = type { ptr }
%class.scoped_ptr_vector = type { %class.ptr_vector.13 }
%class.ptr_vector.13 = type { %class.vector.14 }
%class.vector.14 = type { ptr }
%"class.sls::bvect" = type <{ %class.svector, i32, i32, i32, [4 x i8] }>

; Function Attrs: mustprogress nounwind uwtable
define hidden noundef zeroext i1 @_ZN3sls7bv_eval18is_lookahead_phaseEv(ptr noundef nonnull align 8 dereferenceable(865) %0) #5 align 2 {
  %2 = alloca i1, align 1
  %3 = alloca ptr, align 8
  store ptr %0, ptr %3, align 8, !tbaa !3
  %4 = load ptr, ptr %3, align 8
  %5 = getelementptr inbounds nuw %"class.sls::bv_eval", ptr %4, i32 0, i32 11
  %6 = load i32, ptr %5, align 8, !tbaa !65
  %7 = add i32 %6, 1
  store i32 %7, ptr %5, align 8, !tbaa !65
  %8 = getelementptr inbounds nuw %"class.sls::bv_eval", ptr %4, i32 0, i32 11
  %9 = load i32, ptr %8, align 8, !tbaa !65
  %10 = getelementptr inbounds nuw %"class.sls::bv_eval", ptr %4, i32 0, i32 12
  %11 = load i32, ptr %10, align 4, !tbaa !66
  %12 = icmp ult i32 %9, %11
  br i1 %12, label %13, label %14

13:                                               ; preds = %1
  store i1 true, ptr %2, align 1
  br label %24

14:                                               ; preds = %1
  %15 = getelementptr inbounds nuw %"class.sls::bv_eval", ptr %4, i32 0, i32 11
  %16 = load i32, ptr %15, align 8, !tbaa !65
  %17 = getelementptr inbounds nuw %"class.sls::bv_eval", ptr %4, i32 0, i32 12
  %18 = load i32, ptr %17, align 4, !tbaa !66
  %19 = mul i32 10, %18
  %20 = icmp ugt i32 %16, %19
  br i1 %20, label %21, label %23

21:                                               ; preds = %14
  %22 = getelementptr inbounds nuw %"class.sls::bv_eval", ptr %4, i32 0, i32 11
  store i32 0, ptr %22, align 8, !tbaa !65
  br label %23

23:                                               ; preds = %21, %14
  store i1 false, ptr %2, align 1
  br label %24

24:                                               ; preds = %23, %13
  %25 = load i1, ptr %2, align 1
  ret i1 %25
}