; Function Attrs: mustprogress nofree norecurse nosync nounwind willreturn memory(argmem: readwrite) uwtable
define hidden noundef zeroext i1 @_ZN3sls7bv_eval18is_lookahead_phaseEv(ptr noundef nonnull align 8 captures(none) dereferenceable(865) %0) local_unnamed_addr #11 align 2 {
  %2 = getelementptr inbounds nuw i8, ptr %0, i64 520
  %3 = load i32, ptr %2, align 8, !tbaa !94
  %4 = add i32 %3, 1
  %5 = getelementptr inbounds nuw i8, ptr %0, i64 524
  %6 = load i32, ptr %5, align 4, !tbaa !95
  %7 = icmp ult i32 %4, %6
  %8 = mul i32 %6, 10
  %9 = icmp ule i32 %4, %8
  %or.cond.not = or i1 %7, %9
  %spec.store.select = select i1 %or.cond.not, i32 %4, i32 0
  store i32 %spec.store.select, ptr %2, align 8
  ret i1 %7
}